target datalayout = "e-m:e-p270:32:32-p271:32:32-p272:64:64-i64:64-i128:128-f80:128-n8:16:32:64-S128"
target triple = "x86_64-pc-linux-gnu"

%struct.H5FD_core_t = type { %struct.H5FD_t, ptr, ptr, i64, i64, i64, i8, i8, i64, i8, i32, i64, i64, i8, %struct.H5FD_file_image_callbacks_t, ptr }
%struct.H5FD_t = type { i64, ptr, i64, i32, i64, i64, i64, i64, i64, i8 }
%struct.H5FD_file_image_callbacks_t = type { ptr, ptr, ptr, ptr, ptr, ptr, ptr }

@H5FD_init_g = external global i8, align 1
@H5_libterm_g = external global i8, align 1
@.str.1 = private unnamed_addr constant [102 x i8] c"generated/home/dtcxzyw/WorkSpace/Projects/compilers/llvm-opt-benchmark/bench/hdf5/hdf5/src/H5FDcore.c\00", align 1
@H5E_IO_g = external global i64, align 8
@H5E_WRITEERROR_g = external global i64, align 8
@__func__.H5FD__core_write_to_bstore = private unnamed_addr constant [27 x i8] c"H5FD__core_write_to_bstore\00", align 1
@.str.48 = private unnamed_addr constant [224 x i8] c"write to backing store failed: time = %s, filename = '%s', file descriptor = %d, errno = %d, error message = '%s', ptr = %p, total write size = %llu, bytes this sub-write = %llu, bytes actually written = %llu, offset = %llu\00", align 1

; Function Attrs: nounwind uwtable
define internal i32 @H5FD__core_write_to_bstore(ptr noundef %0, i64 noundef %1, i64 noundef %2) #0 {
  %4 = alloca i32, align 4
  %5 = alloca ptr, align 8
  %6 = alloca i64, align 8
  %7 = alloca i64, align 8
  %8 = alloca ptr, align 8
  %9 = alloca i64, align 8
  %10 = alloca i32, align 4
  %11 = alloca i8, align 1
  %12 = alloca i64, align 8
  %13 = alloca i64, align 8
  %14 = alloca i32, align 4
  %15 = alloca i64, align 8
  %16 = alloca i32, align 4
  store ptr %0, ptr %5, align 8, !tbaa !31
  store i64 %1, ptr %6, align 8, !tbaa !11
  store i64 %2, ptr %7, align 8, !tbaa !11
  call void @llvm.lifetime.start.p0(i64 8, ptr %8) #12
  %17 = load ptr, ptr %5, align 8, !tbaa !31
  %18 = getelementptr inbounds nuw %struct.H5FD_core_t, ptr %17, i32 0, i32 2
  %19 = load ptr, ptr %18, align 8, !tbaa !60
  %20 = load i64, ptr %6, align 8, !tbaa !11
  %21 = getelementptr inbounds nuw i8, ptr %19, i64 %20
  store ptr %21, ptr %8, align 8, !tbaa !23
  call void @llvm.lifetime.start.p0(i64 8, ptr %9) #12
  %22 = load i64, ptr %6, align 8, !tbaa !11
  store i64 %22, ptr %9, align 8, !tbaa !11
  call void @llvm.lifetime.start.p0(i64 4, ptr %10) #12
  store i32 0, ptr %10, align 4, !tbaa !3
  call void @llvm.lifetime.start.p0(i64 1, ptr %11) #12
  store i8 0, ptr %11, align 1, !tbaa !7
  %23 = load i8, ptr @H5FD_init_g, align 1, !tbaa !7, !range !9, !noundef !10
  %24 = trunc i8 %23 to i1
  br i1 %24, label %29, label %25

25:                                               ; preds = %3
  %26 = load i8, ptr @H5_libterm_g, align 1, !tbaa !7, !range !9, !noundef !10
  %27 = trunc i8 %26 to i1
  %28 = xor i1 %27, true
  br label %29

29:                                               ; preds = %25, %3
  %30 = phi i1 [ true, %3 ], [ %28, %25 ]
  %31 = xor i1 %30, true
  %32 = xor i1 %31, true
  %33 = zext i1 %32 to i32
  %34 = sext i32 %33 to i64
  %35 = call i64 @llvm.expect.i64(i64 %34, i64 1)
  %36 = icmp ne i64 %35, 0
  br i1 %36, label %37, label %131

37:                                               ; preds = %29
  br label %38

38:                                               ; preds = %128, %37
  %39 = load i64, ptr %7, align 8, !tbaa !11
  %40 = icmp ugt i64 %39, 0
  br i1 %40, label %41, label %129

41:                                               ; preds = %38
  call void @llvm.lifetime.start.p0(i64 8, ptr %12) #12
  store i64 0, ptr %12, align 8, !tbaa !11
  call void @llvm.lifetime.start.p0(i64 8, ptr %13) #12
  store i64 -1, ptr %13, align 8, !tbaa !11
  %42 = load i64, ptr %7, align 8, !tbaa !11
  %43 = icmp ugt i64 %42, 9223372036854775807
  br i1 %43, label %44, label %45

44:                                               ; preds = %41
  store i64 9223372036854775807, ptr %12, align 8, !tbaa !11
  br label %47

45:                                               ; preds = %41
  %46 = load i64, ptr %7, align 8, !tbaa !11
  store i64 %46, ptr %12, align 8, !tbaa !11
  br label %47

47:                                               ; preds = %45, %44
  br label %48

48:                                               ; preds = %70, %47
  %49 = load ptr, ptr %5, align 8, !tbaa !31
  %50 = getelementptr inbounds nuw %struct.H5FD_core_t, ptr %49, i32 0, i32 10
  %51 = load i32, ptr %50, align 4, !tbaa !40
  %52 = load ptr, ptr %8, align 8, !tbaa !23
  %53 = load i64, ptr %12, align 8, !tbaa !11
  %54 = load i64, ptr %9, align 8, !tbaa !11
  %55 = call i64 @pwrite64(i32 noundef %51, ptr noundef %52, i64 noundef %53, i64 noundef %54)
  store i64 %55, ptr %13, align 8, !tbaa !11
  %56 = load i64, ptr %13, align 8, !tbaa !11
  %57 = icmp sgt i64 %56, 0
  br i1 %57, label %58, label %62

58:                                               ; preds = %48
  %59 = load i64, ptr %13, align 8, !tbaa !11
  %60 = load i64, ptr %9, align 8, !tbaa !11
  %61 = add nsw i64 %60, %59
  store i64 %61, ptr %9, align 8, !tbaa !11
  br label %62

62:                                               ; preds = %58, %48
  br label %63

63:                                               ; preds = %62
  %64 = load i64, ptr %13, align 8, !tbaa !11
  %65 = icmp eq i64 -1, %64
  br i1 %65, label %66, label %70

66:                                               ; preds = %63
  %67 = call ptr @__errno_location() #15
  %68 = load i32, ptr %67, align 4, !tbaa !3
  %69 = icmp eq i32 4, %68
  br label %70

70:                                               ; preds = %66, %63
  %71 = phi i1 [ false, %63 ], [ %69, %66 ]
  br i1 %71, label %48, label %72, !llvm.loop !79

72:                                               ; preds = %70
  %73 = load i64, ptr %13, align 8, !tbaa !11
  %74 = icmp eq i64 -1, %73
  br i1 %74, label %75, label %119

75:                                               ; preds = %72
  call void @llvm.lifetime.start.p0(i64 4, ptr %14) #12
  %76 = call ptr @__errno_location() #15
  %77 = load i32, ptr %76, align 4, !tbaa !3
  store i32 %77, ptr %14, align 4, !tbaa !3
  call void @llvm.lifetime.start.p0(i64 8, ptr %15) #12
  %78 = call i64 @time(ptr noundef null) #12
  store i64 %78, ptr %15, align 8, !tbaa !11
  %79 = load ptr, ptr %5, align 8, !tbaa !31
  %80 = getelementptr inbounds nuw %struct.H5FD_core_t, ptr %79, i32 0, i32 10
  %81 = load i32, ptr %80, align 4, !tbaa !40
  %82 = call i64 @lseek64(i32 noundef %81, i64 noundef 0, i32 noundef 1) #12
  store i64 %82, ptr %9, align 8, !tbaa !11
  br label %83

83:                                               ; preds = %75
  br label %84

84:                                               ; preds = %83
  br label %85

85:                                               ; preds = %84
  %86 = load i64, ptr @H5E_IO_g, align 8, !tbaa !11
  %87 = load i64, ptr @H5E_WRITEERROR_g, align 8, !tbaa !11
  %88 = call ptr @ctime(ptr noundef %15) #12
  %89 = load ptr, ptr %5, align 8, !tbaa !31
  %90 = getelementptr inbounds nuw %struct.H5FD_core_t, ptr %89, i32 0, i32 1
  %91 = load ptr, ptr %90, align 8, !tbaa !46
  %92 = load ptr, ptr %5, align 8, !tbaa !31
  %93 = getelementptr inbounds nuw %struct.H5FD_core_t, ptr %92, i32 0, i32 10
  %94 = load i32, ptr %93, align 4, !tbaa !40
  %95 = load i32, ptr %14, align 4, !tbaa !3
  %96 = load i32, ptr %14, align 4, !tbaa !3
  %97 = call ptr @strerror(i32 noundef %96) #12
  %98 = load ptr, ptr %8, align 8, !tbaa !23
  %99 = load i64, ptr %7, align 8, !tbaa !11
  %100 = load i64, ptr %12, align 8, !tbaa !11
  %101 = load i64, ptr %13, align 8, !tbaa !11
  %102 = load i64, ptr %9, align 8, !tbaa !11
  %103 = call i32 (ptr, ptr, i32, i64, i64, ptr, ...) @H5E_printf_stack(ptr noundef @.str.1, ptr noundef @__func__.H5FD__core_write_to_bstore, i32 noundef 401, i64 noundef %86, i64 noundef %87, ptr noundef @.str.48, ptr noundef %88, ptr noundef %91, i32 noundef %94, i32 noundef %95, ptr noundef %97, ptr noundef %98, i64 noundef %99, i64 noundef %100, i64 noundef %101, i64 noundef %102)
  br label %104

104:                                              ; preds = %85
  br label %105

105:                                              ; preds = %104
  store i8 1, ptr %11, align 1, !tbaa !7
  %106 = load i8, ptr %11, align 1, !tbaa !7, !range !9, !noundef !10
  %107 = trunc i8 %106 to i1
  %108 = zext i1 %107 to i8
  store i8 %108, ptr %11, align 1, !tbaa !7
  br label %109

109:                                              ; preds = %105
  br label %110

110:                                              ; preds = %109
  br label %111

111:                                              ; preds = %110
  store i32 -1, ptr %10, align 4, !tbaa !3
  store i32 14, ptr %16, align 4
  br label %116

112:                                              ; No predecessors!
  br label %113

113:                                              ; preds = %112
  br label %114

114:                                              ; preds = %113
  br label %115

115:                                              ; preds = %114
  store i32 0, ptr %16, align 4
  br label %116

116:                                              ; preds = %111, %115
  call void @llvm.lifetime.end.p0(i64 8, ptr %15) #12
  call void @llvm.lifetime.end.p0(i64 4, ptr %14) #12
  %117 = load i32, ptr %16, align 4
  switch i32 %117, label %126 [
    i32 0, label %118
  ]

118:                                              ; preds = %116
  br label %119

119:                                              ; preds = %118, %72
  %120 = load i64, ptr %13, align 8, !tbaa !11
  %121 = load i64, ptr %7, align 8, !tbaa !11
  %122 = sub i64 %121, %120
  store i64 %122, ptr %7, align 8, !tbaa !11
  %123 = load ptr, ptr %8, align 8, !tbaa !23
  %124 = load i64, ptr %13, align 8, !tbaa !11
  %125 = getelementptr inbounds i8, ptr %123, i64 %124
  store ptr %125, ptr %8, align 8, !tbaa !23
  store i32 0, ptr %16, align 4
  br label %126

126:                                              ; preds = %119, %116
  call void @llvm.lifetime.end.p0(i64 8, ptr %13) #12
  call void @llvm.lifetime.end.p0(i64 8, ptr %12) #12
  %127 = load i32, ptr %16, align 4
  switch i32 %127, label %133 [
    i32 0, label %128
    i32 14, label %130
  ]

128:                                              ; preds = %126
  br label %38, !llvm.loop !80

129:                                              ; preds = %38
  br label %130

130:                                              ; preds = %129, %126
  br label %131

131:                                              ; preds = %130, %29
  %132 = load i32, ptr %10, align 4, !tbaa !3
  store i32 %132, ptr %4, align 4
  store i32 1, ptr %16, align 4
  br label %133

133:                                              ; preds = %131, %126
  call void @llvm.lifetime.end.p0(i64 1, ptr %11) #12
  call void @llvm.lifetime.end.p0(i64 4, ptr %10) #12
  call void @llvm.lifetime.end.p0(i64 8, ptr %9) #12
  call void @llvm.lifetime.end.p0(i64 8, ptr %8) #12
  %134 = load i32, ptr %4, align 4
  ret i32 %134
}