; Function Attrs: nounwind uwtable
define internal fastcc range(i32 -1, 1) i32 @H5FD__core_write_to_bstore(ptr noundef readonly captures(none) %0, i64 noundef %1, i64 noundef %2) unnamed_addr #0 {
  %4 = alloca i64, align 8
  %5 = load i8, ptr @H5FD_init_g, align 1, !tbaa !3, !range !7, !noundef !8
  %6 = trunc nuw i8 %5 to i1
  %7 = load i8, ptr @H5_libterm_g, align 1, !range !7
  %8 = trunc nuw i8 %7 to i1
  %9 = xor i1 %8, true
  %10 = select i1 %6, i1 true, i1 %9
  %11 = icmp ne i64 %2, 0
  %or.cond = and i1 %11, %10
  br i1 %or.cond, label %.preheader, label %.loopexit, !prof !59

.preheader:                                       ; preds = %3
  %12 = getelementptr inbounds nuw i8, ptr %0, i64 88
  %13 = load ptr, ptr %12, align 8, !tbaa !50
  %14 = getelementptr inbounds nuw i8, ptr %13, i64 %1
  %15 = getelementptr inbounds nuw i8, ptr %0, i64 140
  br label %16

16:                                               ; preds = %.preheader, %37
  %.044 = phi i64 [ %38, %37 ], [ %2, %.preheader ]
  %.042 = phi ptr [ %39, %37 ], [ %14, %.preheader ]
  %.038 = phi i64 [ %spec.select, %37 ], [ %1, %.preheader ]
  %..044 = tail call i64 @llvm.umin.i64(i64 %.044, i64 9223372036854775807)
  br label %17

17:                                               ; preds = %22, %16
  %.139 = phi i64 [ %.038, %16 ], [ %spec.select, %22 ]
  %18 = load i32, ptr %15, align 4, !tbaa !30
  %19 = tail call i64 @pwrite64(i32 noundef %18, ptr noundef %.042, i64 noundef %..044, i64 noundef %.139) #18
  %20 = tail call i64 @llvm.smax.i64(i64 %19, i64 0)
  %spec.select = add nsw i64 %20, %.139
  %21 = icmp eq i64 %19, -1
  br i1 %21, label %22, label %37

22:                                               ; preds = %17
  %23 = tail call ptr @__errno_location() #21
  %24 = load i32, ptr %23, align 4, !tbaa !36
  %25 = icmp eq i32 %24, 4
  br i1 %25, label %17, label %.thread, !llvm.loop !68

.thread:                                          ; preds = %22
  call void @llvm.lifetime.start.p0(i64 8, ptr nonnull %4) #18
  %26 = tail call i64 @time(ptr noundef null) #18
  store i64 %26, ptr %4, align 8, !tbaa !10
  %27 = load i32, ptr %15, align 4, !tbaa !30
  %28 = tail call i64 @lseek64(i32 noundef %27, i64 noundef 0, i32 noundef 1) #18
  %29 = load i64, ptr @H5E_IO_g, align 8, !tbaa !10
  %30 = load i64, ptr @H5E_WRITEERROR_g, align 8, !tbaa !10
  %31 = call ptr @ctime(ptr noundef nonnull %4) #18
  %32 = getelementptr inbounds nuw i8, ptr %0, i64 80
  %33 = load ptr, ptr %32, align 8, !tbaa !37
  %34 = load i32, ptr %15, align 4, !tbaa !30
  %35 = call ptr @strerror(i32 noundef %24) #18
  %36 = call i32 (ptr, ptr, i32, i64, i64, ptr, ...) @H5E_printf_stack(ptr noundef nonnull @.str.1, ptr noundef nonnull @__func__.H5FD__core_write_to_bstore, i32 noundef 401, i64 noundef %29, i64 noundef %30, ptr noundef nonnull @.str.48, ptr noundef %31, ptr noundef %33, i32 noundef %34, i32 noundef %24, ptr noundef %35, ptr noundef %.042, i64 noundef %.044, i64 noundef %..044, i64 noundef -1, i64 noundef %28) #18
  call void @llvm.lifetime.end.p0(i64 8, ptr nonnull %4) #18
  br label %.loopexit

37:                                               ; preds = %17
  %38 = sub i64 %.044, %19
  %39 = getelementptr inbounds i8, ptr %.042, i64 %19
  %.old1.not = icmp eq i64 %38, 0
  br i1 %.old1.not, label %.loopexit, label %16

.loopexit:                                        ; preds = %37, %.thread, %3
  %.035 = phi i32 [ 0, %3 ], [ -1, %.thread ], [ 0, %37 ]
  ret i32 %.035
}